; Function Attrs: mustprogress uwtable
define noundef signext i8 @_ZN6icu_757UVector13removeElementEPv(ptr nocapture noundef nonnull align 8 dereferenceable(40) %this, ptr noundef %obj) local_unnamed_addr #1 align 2 {
entry:
  %comparer.i.i = getelementptr inbounds i8, ptr %this, i64 32
  %0 = load ptr, ptr %comparer.i.i, align 8
  %cmp.not.i.i = icmp eq ptr %0, null
  %count10.i.i = getelementptr inbounds i8, ptr %this, i64 8
  %1 = load i32, ptr %count10.i.i, align 8
  %cmp1115.i.i = icmp sgt i32 %1, 0
  br i1 %cmp.not.i.i, label %for.cond9.preheader.i.i, label %for.cond.preheader.i.i

for.cond.preheader.i.i:                           ; preds = %entry
  br i1 %cmp1115.i.i, label %for.body.lr.ph.i.i, label %return

for.body.lr.ph.i.i:                               ; preds = %for.cond.preheader.i.i
  %elements.i.i = getelementptr inbounds i8, ptr %this, i64 16
  br label %for.body.i.i

for.cond9.preheader.i.i:                          ; preds = %entry
  br i1 %cmp1115.i.i, label %for.body12.lr.ph.i.i, label %return

for.body12.lr.ph.i.i:                             ; preds = %for.cond9.preheader.i.i
  %elements15.i.i = getelementptr inbounds i8, ptr %this, i64 16
  %2 = load ptr, ptr %elements15.i.i, align 8
  %wide.trip.count32.i.i = zext nneg i32 %1 to i64
  br label %for.body12.i.i

for.body.i.i:                                     ; preds = %for.inc.i.i, %for.body.lr.ph.i.i
  %indvars.iv.i.i = phi i64 [ 0, %for.body.lr.ph.i.i ], [ %indvars.iv.next.i.i, %for.inc.i.i ]
  %3 = load ptr, ptr %comparer.i.i, align 8
  %4 = load ptr, ptr %elements.i.i, align 8
  %arrayidx.i.i = getelementptr inbounds %union.UElement, ptr %4, i64 %indvars.iv.i.i
  %agg.tmp4.sroa.0.0.copyload.i.i = load ptr, ptr %arrayidx.i.i, align 8
  %call.i.i = tail call noundef signext i8 %3(ptr %obj, ptr %agg.tmp4.sroa.0.0.copyload.i.i)
  %tobool.not.i.i = icmp eq i8 %call.i.i, 0
  br i1 %tobool.not.i.i, label %for.inc.i.i, label %_ZNK6icu_757UVector7indexOfEPvi.exit

for.inc.i.i:                                      ; preds = %for.body.i.i
  %indvars.iv.next.i.i = add nuw nsw i64 %indvars.iv.i.i, 1
  %5 = load i32, ptr %count10.i.i, align 8
  %6 = sext i32 %5 to i64
  %cmp2.i.i = icmp slt i64 %indvars.iv.next.i.i, %6
  br i1 %cmp2.i.i, label %for.body.i.i, label %return, !llvm.loop !17

for.body12.i.i:                                   ; preds = %for.inc29.i.i, %for.body12.lr.ph.i.i
  %indvars.iv26.i.i = phi i64 [ %indvars.iv.next27.i.i, %for.inc29.i.i ], [ 0, %for.body12.lr.ph.i.i ]
  %arrayidx17.i.i = getelementptr inbounds %union.UElement, ptr %2, i64 %indvars.iv26.i.i
  %7 = load ptr, ptr %arrayidx17.i.i, align 8
  %cmp18.i.i = icmp eq ptr %7, %obj
  br i1 %cmp18.i.i, label %_ZNK6icu_757UVector7indexOfEPvi.exit, label %for.inc29.i.i

for.inc29.i.i:                                    ; preds = %for.body12.i.i
  %indvars.iv.next27.i.i = add nuw nsw i64 %indvars.iv26.i.i, 1
  %exitcond.not.i.i = icmp eq i64 %indvars.iv.next27.i.i, %wide.trip.count32.i.i
  br i1 %exitcond.not.i.i, label %return, label %for.body12.i.i, !llvm.loop !14

_ZNK6icu_757UVector7indexOfEPvi.exit:             ; preds = %for.body.i.i, %for.body12.i.i
  %retval.0.i.i.in = phi i64 [ %indvars.iv26.i.i, %for.body12.i.i ], [ %indvars.iv.i.i, %for.body.i.i ]
  %retval.0.i.i = trunc i64 %retval.0.i.i.in to i32
  %cmp = icmp sgt i32 %retval.0.i.i, -1
  br i1 %cmp, label %land.lhs.true.i.i, label %return

land.lhs.true.i.i:                                ; preds = %_ZNK6icu_757UVector7indexOfEPvi.exit
  %8 = load i32, ptr %count10.i.i, align 8
  %cmp2.i.i2 = icmp sgt i32 %8, %retval.0.i.i
  br i1 %cmp2.i.i2, label %if.then.i.i, label %return

if.then.i.i:                                      ; preds = %land.lhs.true.i.i
  %elements.i.i3 = getelementptr inbounds i8, ptr %this, i64 16
  %9 = load ptr, ptr %elements.i.i3, align 8
  %idxprom.i.i = and i64 %retval.0.i.i.in, 2147483647
  %arrayidx.i.i4 = getelementptr inbounds %union.UElement, ptr %9, i64 %idxprom.i.i
  %10 = load ptr, ptr %arrayidx.i.i4, align 8
  %sub7.i.i = add nsw i32 %8, -1
  %cmp48.i.i = icmp ugt i32 %sub7.i.i, %retval.0.i.i
  br i1 %cmp48.i.i, label %for.body.i.i5, label %_ZN6icu_757UVector15orphanElementAtEi.exit.i

for.body.i.i5:                                    ; preds = %if.then.i.i, %for.body.i.i5
  %indvars.iv.i.i6 = phi i64 [ %indvars.iv.next.i.i7, %for.body.i.i5 ], [ %idxprom.i.i, %if.then.i.i ]
  %11 = load ptr, ptr %elements.i.i3, align 8
  %indvars.iv.next.i.i7 = add nuw nsw i64 %indvars.iv.i.i6, 1
  %arrayidx7.i.i = getelementptr inbounds %union.UElement, ptr %11, i64 %indvars.iv.next.i.i7
  %arrayidx10.i.i = getelementptr inbounds %union.UElement, ptr %11, i64 %indvars.iv.i.i6
  %12 = load i64, ptr %arrayidx7.i.i, align 8
  store i64 %12, ptr %arrayidx10.i.i, align 8
  %13 = load i32, ptr %count10.i.i, align 8
  %sub.i.i = add nsw i32 %13, -1
  %14 = trunc i64 %indvars.iv.next.i.i7 to i32
  %cmp4.i.i = icmp sgt i32 %sub.i.i, %14
  br i1 %cmp4.i.i, label %for.body.i.i5, label %_ZN6icu_757UVector15orphanElementAtEi.exit.i, !llvm.loop !8

_ZN6icu_757UVector15orphanElementAtEi.exit.i:     ; preds = %for.body.i.i5, %if.then.i.i
  %sub.lcssa.i.i = phi i32 [ %sub7.i.i, %if.then.i.i ], [ %sub.i.i, %for.body.i.i5 ]
  store i32 %sub.lcssa.i.i, ptr %count10.i.i, align 8
  %cmp.not.i = icmp eq ptr %10, null
  br i1 %cmp.not.i, label %return, label %land.lhs.true.i

land.lhs.true.i:                                  ; preds = %_ZN6icu_757UVector15orphanElementAtEi.exit.i
  %deleter.i = getelementptr inbounds i8, ptr %this, i64 24
  %15 = load ptr, ptr %deleter.i, align 8
  %cmp2.not.i = icmp eq ptr %15, null
  br i1 %cmp2.not.i, label %return, label %if.then.i

if.then.i:                                        ; preds = %land.lhs.true.i
  tail call void %15(ptr noundef nonnull %10)
  br label %return

return:                                           ; preds = %for.inc.i.i, %for.inc29.i.i, %for.cond.preheader.i.i, %for.cond9.preheader.i.i, %if.then.i, %land.lhs.true.i, %_ZN6icu_757UVector15orphanElementAtEi.exit.i, %land.lhs.true.i.i, %_ZNK6icu_757UVector7indexOfEPvi.exit
  %retval.0 = phi i8 [ 0, %_ZNK6icu_757UVector7indexOfEPvi.exit ], [ 1, %land.lhs.true.i.i ], [ 1, %_ZN6icu_757UVector15orphanElementAtEi.exit.i ], [ 1, %land.lhs.true.i ], [ 1, %if.then.i ], [ 0, %for.cond9.preheader.i.i ], [ 0, %for.cond.preheader.i.i ], [ 0, %for.inc29.i.i ], [ 0, %for.inc.i.i ]
  ret i8 %retval.0
}